target datalayout = "e-m:e-p270:32:32-p271:32:32-p272:64:64-i64:64-i128:128-f80:128-n8:16:32:64-S128"
target triple = "x86_64-pc-linux-gnu"

%struct.DdTlcInfo = type { ptr, ptr, i32 }

; Function Attrs: nounwind uwtable
define void @Cudd_tlcInfoFree(ptr noundef %0) #0 {
  %2 = alloca ptr, align 8
  store ptr %0, ptr %2, align 8
  %3 = load ptr, ptr %2, align 8
  %4 = getelementptr inbounds %struct.DdTlcInfo, ptr %3, i32 0, i32 0
  %5 = load ptr, ptr %4, align 8
  %6 = icmp ne ptr %5, null
  br i1 %6, label %7, label %20

7:                                                ; preds = %1
  %8 = load ptr, ptr %2, align 8
  %9 = getelementptr inbounds %struct.DdTlcInfo, ptr %8, i32 0, i32 0
  %10 = load ptr, ptr %9, align 8
  %11 = icmp ne ptr %10, null
  br i1 %11, label %12, label %18

12:                                               ; preds = %7
  %13 = load ptr, ptr %2, align 8
  %14 = getelementptr inbounds %struct.DdTlcInfo, ptr %13, i32 0, i32 0
  %15 = load ptr, ptr %14, align 8
  call void @free(ptr noundef %15) #6
  %16 = load ptr, ptr %2, align 8
  %17 = getelementptr inbounds %struct.DdTlcInfo, ptr %16, i32 0, i32 0
  store ptr null, ptr %17, align 8
  br label %19

18:                                               ; preds = %7
  br label %19

19:                                               ; preds = %18, %12
  br label %20

20:                                               ; preds = %19, %1
  %21 = load ptr, ptr %2, align 8
  %22 = getelementptr inbounds %struct.DdTlcInfo, ptr %21, i32 0, i32 1
  %23 = load ptr, ptr %22, align 8
  %24 = icmp ne ptr %23, null
  br i1 %24, label %25, label %38

25:                                               ; preds = %20
  %26 = load ptr, ptr %2, align 8
  %27 = getelementptr inbounds %struct.DdTlcInfo, ptr %26, i32 0, i32 1
  %28 = load ptr, ptr %27, align 8
  %29 = icmp ne ptr %28, null
  br i1 %29, label %30, label %36

30:                                               ; preds = %25
  %31 = load ptr, ptr %2, align 8
  %32 = getelementptr inbounds %struct.DdTlcInfo, ptr %31, i32 0, i32 1
  %33 = load ptr, ptr %32, align 8
  call void @free(ptr noundef %33) #6
  %34 = load ptr, ptr %2, align 8
  %35 = getelementptr inbounds %struct.DdTlcInfo, ptr %34, i32 0, i32 1
  store ptr null, ptr %35, align 8
  br label %37

36:                                               ; preds = %25
  br label %37

37:                                               ; preds = %36, %30
  br label %38

38:                                               ; preds = %37, %20
  %39 = load ptr, ptr %2, align 8
  %40 = icmp ne ptr %39, null
  br i1 %40, label %41, label %43

41:                                               ; preds = %38
  %42 = load ptr, ptr %2, align 8
  call void @free(ptr noundef %42) #6
  store ptr null, ptr %2, align 8
  br label %44

43:                                               ; preds = %38
  br label %44

44:                                               ; preds = %43, %41
  ret void
}