; Function Attrs: mustprogress nounwind willreturn uwtable
define void @Cudd_tlcInfoFree(ptr noundef captures(none) %0) local_unnamed_addr #3 {
  %2 = load ptr, ptr %0, align 8
  %.not = icmp eq ptr %2, null
  br i1 %.not, label %4, label %3

3:                                                ; preds = %1
  tail call void @free(ptr noundef nonnull %2) #11
  store ptr null, ptr %0, align 8
  br label %4

4:                                                ; preds = %3, %1
  %5 = getelementptr inbounds nuw i8, ptr %0, i64 8
  %6 = load ptr, ptr %5, align 8
  %.not11 = icmp eq ptr %6, null
  br i1 %.not11, label %8, label %7

7:                                                ; preds = %4
  tail call void @free(ptr noundef nonnull %6) #11
  br label %8

8:                                                ; preds = %4, %7
  tail call void @free(ptr noundef nonnull %0) #11
  ret void
}